target datalayout = "e-m:e-p270:32:32-p271:32:32-p272:64:64-i64:64-i128:128-f80:128-n8:16:32:64-S128"
target triple = "x86_64-pc-linux-gnu"

@proto_tpkt_ptr = internal global ptr null, align 8
@tpkt_desegment = internal global i8 1, align 1
@osi_tp_handle = internal global ptr null, align 8

; Function Attrs: null_pointer_is_valid sspstrong uwtable
define internal i32 @dissect_tpkt(ptr noundef %0, ptr noundef %1, ptr noundef %2, ptr noundef %3) #0 {
  %5 = alloca ptr, align 8
  %6 = alloca ptr, align 8
  %7 = alloca ptr, align 8
  %8 = alloca ptr, align 8
  store ptr %0, ptr %5, align 8
  store ptr %1, ptr %6, align 8
  store ptr %2, ptr %7, align 8
  store ptr %3, ptr %8, align 8
  %9 = load ptr, ptr %5, align 8
  %10 = load ptr, ptr %6, align 8
  %11 = load ptr, ptr %7, align 8
  %12 = load i8, ptr @tpkt_desegment, align 1, !range !8, !noundef !9
  %13 = trunc i8 %12 to i1
  %14 = load ptr, ptr @osi_tp_handle, align 8
  call void @dissect_tpkt_encap(ptr noundef %9, ptr noundef %10, ptr noundef %11, i1 noundef zeroext %13, ptr noundef %14)
  %15 = load ptr, ptr %5, align 8
  %16 = call i32 @tvb_captured_length(ptr noundef %15)
  ret i32 %16
}

; Function Attrs: null_pointer_is_valid sspstrong uwtable
define i32 @is_tpkt(ptr noundef %0, i32 noundef %1) #0 {
  %3 = alloca i32, align 4
  %4 = alloca ptr, align 8
  %5 = alloca i32, align 4
  %6 = alloca i16, align 2
  %7 = alloca i32, align 4
  store ptr %0, ptr %4, align 8
  store i32 %1, ptr %5, align 4
  call void @llvm.lifetime.start.p0(i64 2, ptr %6) #6
  %8 = load ptr, ptr @proto_tpkt_ptr, align 8
  %9 = call zeroext i1 @proto_is_protocol_enabled(ptr noundef %8)
  br i1 %9, label %11, label %10

10:                                               ; preds = %2
  store i32 -1, ptr %3, align 4
  store i32 1, ptr %7, align 4
  br label %39

11:                                               ; preds = %2
  %12 = load ptr, ptr %4, align 8
  %13 = call i32 @tvb_captured_length(ptr noundef %12)
  %14 = icmp ult i32 %13, 4
  br i1 %14, label %15, label %16

15:                                               ; preds = %11
  store i32 -1, ptr %3, align 4
  store i32 1, ptr %7, align 4
  br label %39

16:                                               ; preds = %11
  %17 = load ptr, ptr %4, align 8
  %18 = call zeroext i8 @tvb_get_uint8(ptr noundef %17, i32 noundef 0)
  %19 = zext i8 %18 to i32
  %20 = icmp eq i32 %19, 3
  br i1 %20, label %21, label %26

21:                                               ; preds = %16
  %22 = load ptr, ptr %4, align 8
  %23 = call zeroext i8 @tvb_get_uint8(ptr noundef %22, i32 noundef 1)
  %24 = zext i8 %23 to i32
  %25 = icmp eq i32 %24, 0
  br i1 %25, label %27, label %26

26:                                               ; preds = %21, %16
  store i32 -1, ptr %3, align 4
  store i32 1, ptr %7, align 4
  br label %39

27:                                               ; preds = %21
  %28 = load ptr, ptr %4, align 8
  %29 = call zeroext i16 @tvb_get_ntohs(ptr noundef %28, i32 noundef 2)
  store i16 %29, ptr %6, align 2
  %30 = load i16, ptr %6, align 2
  %31 = zext i16 %30 to i32
  %32 = load i32, ptr %5, align 4
  %33 = add i32 4, %32
  %34 = icmp slt i32 %31, %33
  br i1 %34, label %35, label %36

35:                                               ; preds = %27
  store i32 -1, ptr %3, align 4
  store i32 1, ptr %7, align 4
  br label %39

36:                                               ; preds = %27
  %37 = load i16, ptr %6, align 2
  %38 = zext i16 %37 to i32
  store i32 %38, ptr %3, align 4
  store i32 1, ptr %7, align 4
  br label %39

39:                                               ; preds = %36, %35, %26, %15, %10
  call void @llvm.lifetime.end.p0(i64 2, ptr %6) #6
  %40 = load i32, ptr %3, align 4
  ret i32 %40
}

; Function Attrs: null_pointer_is_valid sspstrong uwtable
define internal i32 @dissect_tpkt_tcp(ptr noundef %0, ptr noundef %1, ptr noundef %2, ptr noundef %3) #0 {
  %5 = alloca i32, align 4
  %6 = alloca ptr, align 8
  %7 = alloca ptr, align 8
  %8 = alloca ptr, align 8
  %9 = alloca ptr, align 8
  store ptr %0, ptr %6, align 8
  store ptr %1, ptr %7, align 8
  store ptr %2, ptr %8, align 8
  store ptr %3, ptr %9, align 8
  %10 = load ptr, ptr %6, align 8
  %11 = call i32 @is_tpkt(ptr noundef %10, i32 noundef 0)
  %12 = icmp eq i32 %11, -1
  br i1 %12, label %13, label %14

13:                                               ; preds = %4
  store i32 0, ptr %5, align 4
  br label %20

14:                                               ; preds = %4
  %15 = load ptr, ptr %6, align 8
  %16 = load ptr, ptr %7, align 8
  %17 = load ptr, ptr %8, align 8
  %18 = load ptr, ptr %9, align 8
  %19 = call i32 @dissect_tpkt(ptr noundef %15, ptr noundef %16, ptr noundef %17, ptr noundef %18)
  store i32 %19, ptr %5, align 4
  br label %20

20:                                               ; preds = %14, %13
  %21 = load i32, ptr %5, align 4
  ret i32 %21
}