; Function Attrs: null_pointer_is_valid sspstrong uwtable
define internal i32 @dissect_tpkt_tcp(ptr noundef %0, ptr noundef %1, ptr noundef %2, ptr readnone captures(none) %3) #0 {
  %5 = load ptr, ptr @proto_tpkt_ptr, align 8
  %6 = tail call zeroext i1 @proto_is_protocol_enabled(ptr noundef %5)
  br i1 %6, label %7, label %is_tpkt.exit.thread

7:                                                ; preds = %4
  %8 = tail call i32 @tvb_captured_length(ptr noundef %0)
  %9 = icmp ult i32 %8, 4
  br i1 %9, label %is_tpkt.exit.thread, label %10

10:                                               ; preds = %7
  %11 = tail call zeroext i8 @tvb_get_uint8(ptr noundef %0, i32 noundef 0)
  %12 = icmp eq i8 %11, 3
  br i1 %12, label %13, label %is_tpkt.exit.thread

13:                                               ; preds = %10
  %14 = tail call zeroext i8 @tvb_get_uint8(ptr noundef %0, i32 noundef 1)
  %15 = icmp eq i8 %14, 0
  br i1 %15, label %16, label %is_tpkt.exit.thread

16:                                               ; preds = %13
  %17 = tail call zeroext i16 @tvb_get_ntohs(ptr noundef %0, i32 noundef 2)
  %18 = icmp ult i16 %17, 4
  br i1 %18, label %is_tpkt.exit.thread, label %is_tpkt.exit

is_tpkt.exit:                                     ; preds = %16
  %19 = load i8, ptr @tpkt_desegment, align 1, !range !8, !noundef !9
  %20 = trunc nuw i8 %19 to i1
  %21 = load ptr, ptr @osi_tp_handle, align 8
  tail call void @dissect_tpkt_encap(ptr noundef %0, ptr noundef %1, ptr noundef %2, i1 noundef zeroext %20, ptr noundef %21)
  %22 = tail call i32 @tvb_captured_length(ptr noundef %0)
  br label %is_tpkt.exit.thread

is_tpkt.exit.thread:                              ; preds = %16, %10, %13, %7, %4, %is_tpkt.exit
  %.0 = phi i32 [ %22, %is_tpkt.exit ], [ 0, %4 ], [ 0, %7 ], [ 0, %13 ], [ 0, %10 ], [ 0, %16 ]
  ret i32 %.0
}